target datalayout = "e-m:e-p270:32:32-p271:32:32-p272:64:64-i64:64-i128:128-f80:128-n8:16:32:64-S128"
target triple = "x86_64-pc-linux-gnu"

%"class.Yosys::hashlib::HasherDJB32" = type { i32 }
%"struct.Yosys::Aig" = type { %"class.std::__cxx11::basic_string", %"class.std::vector.3" }
%"class.std::__cxx11::basic_string" = type { %"struct.std::__cxx11::basic_string<char>::_Alloc_hider", i64, %union.anon }
%"struct.std::__cxx11::basic_string<char>::_Alloc_hider" = type { ptr }
%union.anon = type { i64, [8 x i8] }
%"class.std::vector.3" = type { %"struct.std::_Vector_base.4" }
%"struct.std::_Vector_base.4" = type { %"struct.std::_Vector_base<Yosys::AigNode, std::allocator<Yosys::AigNode>>::_Vector_impl" }
%"struct.std::_Vector_base<Yosys::AigNode, std::allocator<Yosys::AigNode>>::_Vector_impl" = type { %"struct.std::_Vector_base<Yosys::AigNode, std::allocator<Yosys::AigNode>>::_Vector_impl_data" }
%"struct.std::_Vector_base<Yosys::AigNode, std::allocator<Yosys::AigNode>>::_Vector_impl_data" = type { ptr, ptr, ptr }
%"class.__gnu_cxx::__normal_iterator.241" = type { ptr }

@_ZN5Yosys7hashlib11HasherDJB325fudgeE = external global i32, align 4

; Function Attrs: inlinehint mustprogress nounwind uwtable
define linkonce_odr noundef i32 @_ZN5Yosys7hashlib15mkhash_xorshiftEj(i32 noundef %0) #5 comdat {
  %2 = alloca i32, align 4
  store i32 %0, ptr %2, align 4, !tbaa !32
  %3 = load i32, ptr %2, align 4, !tbaa !32
  %4 = shl i32 %3, 13
  %5 = load i32, ptr %2, align 4, !tbaa !32
  %6 = xor i32 %5, %4
  store i32 %6, ptr %2, align 4, !tbaa !32
  %7 = load i32, ptr %2, align 4, !tbaa !32
  %8 = lshr i32 %7, 17
  %9 = load i32, ptr %2, align 4, !tbaa !32
  %10 = xor i32 %9, %8
  store i32 %10, ptr %2, align 4, !tbaa !32
  %11 = load i32, ptr %2, align 4, !tbaa !32
  %12 = shl i32 %11, 5
  %13 = load i32, ptr %2, align 4, !tbaa !32
  %14 = xor i32 %13, %12
  store i32 %14, ptr %2, align 4, !tbaa !32
  %15 = load i32, ptr %2, align 4, !tbaa !32
  ret i32 %15
}

; Function Attrs: mustprogress nounwind uwtable
define linkonce_odr noundef i32 @_ZN5Yosys7hashlib11HasherDJB328djb2_xorEjj(i32 noundef %0, i32 noundef %1) #6 comdat align 2 {
  %3 = alloca i32, align 4
  %4 = alloca i32, align 4
  %5 = alloca i32, align 4
  store i32 %0, ptr %3, align 4, !tbaa !32
  store i32 %1, ptr %4, align 4, !tbaa !32
  call void @llvm.lifetime.start.p0(i64 4, ptr %5) #3
  %6 = load i32, ptr %3, align 4, !tbaa !32
  %7 = shl i32 %6, 5
  %8 = load i32, ptr %3, align 4, !tbaa !32
  %9 = add i32 %7, %8
  %10 = load i32, ptr %4, align 4, !tbaa !32
  %11 = xor i32 %9, %10
  store i32 %11, ptr %5, align 4, !tbaa !32
  %12 = load i32, ptr %5, align 4, !tbaa !32
  call void @llvm.lifetime.end.p0(i64 4, ptr %5) #3
  ret i32 %12
}

; Function Attrs: mustprogress nounwind uwtable
define linkonce_odr noundef nonnull align 8 dereferenceable(8) ptr @_ZNK9__gnu_cxx17__normal_iteratorIPKcNSt7__cxx1112basic_stringIcSt11char_traitsIcESaIcEEEE4baseEv(ptr noundef nonnull align 8 dereferenceable(8) %0) #6 comdat align 2 {
  %2 = alloca ptr, align 8
  store ptr %0, ptr %2, align 8, !tbaa !386
  %3 = load ptr, ptr %2, align 8
  %4 = getelementptr inbounds nuw %"class.__gnu_cxx::__normal_iterator.241", ptr %3, i32 0, i32 0
  ret ptr %4
}

; Function Attrs: mustprogress nounwind uwtable
define available_externally noundef i64 @_ZNKSt7__cxx1112basic_stringIcSt11char_traitsIcESaIcEE4sizeEv(ptr noundef nonnull align 8 dereferenceable(32) %0) #6 align 2 {
  %2 = alloca ptr, align 8
  store ptr %0, ptr %2, align 8, !tbaa !41
  %3 = load ptr, ptr %2, align 8
  %4 = getelementptr inbounds nuw %"class.std::__cxx11::basic_string", ptr %3, i32 0, i32 1
  %5 = load i64, ptr %4, align 8, !tbaa !189
  ret i64 %5
}

; Function Attrs: mustprogress nounwind uwtable
define linkonce_odr void @_ZN9__gnu_cxx17__normal_iteratorIPKcNSt7__cxx1112basic_stringIcSt11char_traitsIcESaIcEEEEC2ERKS2_(ptr noundef nonnull align 8 dereferenceable(8) %0, ptr noundef nonnull align 8 dereferenceable(8) %1) unnamed_addr #6 comdat align 2 {
  %3 = alloca ptr, align 8
  %4 = alloca ptr, align 8
  store ptr %0, ptr %3, align 8, !tbaa !386
  store ptr %1, ptr %4, align 8, !tbaa !188
  %5 = load ptr, ptr %3, align 8
  %6 = getelementptr inbounds nuw %"class.__gnu_cxx::__normal_iterator.241", ptr %5, i32 0, i32 0
  %7 = load ptr, ptr %4, align 8, !tbaa !188
  %8 = load ptr, ptr %7, align 8, !tbaa !67
  store ptr %8, ptr %6, align 8, !tbaa !388
  ret void
}

; Function Attrs: mustprogress nounwind uwtable
define available_externally noundef ptr @_ZNKSt7__cxx1112basic_stringIcSt11char_traitsIcESaIcEE7_M_dataEv(ptr noundef nonnull align 8 dereferenceable(32) %0) #6 align 2 {
  %2 = alloca ptr, align 8
  store ptr %0, ptr %2, align 8, !tbaa !41
  %3 = load ptr, ptr %2, align 8
  %4 = getelementptr inbounds nuw %"class.std::__cxx11::basic_string", ptr %3, i32 0, i32 0
  %5 = getelementptr inbounds nuw %"struct.std::__cxx11::basic_string<char>::_Alloc_hider", ptr %4, i32 0, i32 0
  %6 = load ptr, ptr %5, align 8, !tbaa !184
  ret ptr %6
}

; Function Attrs: mustprogress nounwind uwtable
define linkonce_odr noundef nonnull align 8 dereferenceable(8) ptr @_ZN9__gnu_cxx17__normal_iteratorIPKcNSt7__cxx1112basic_stringIcSt11char_traitsIcESaIcEEEEppEv(ptr noundef nonnull align 8 dereferenceable(8) %0) #6 comdat align 2 {
  %2 = alloca ptr, align 8
  store ptr %0, ptr %2, align 8, !tbaa !386
  %3 = load ptr, ptr %2, align 8
  %4 = getelementptr inbounds nuw %"class.__gnu_cxx::__normal_iterator.241", ptr %3, i32 0, i32 0
  %5 = load ptr, ptr %4, align 8, !tbaa !388
  %6 = getelementptr inbounds nuw i8, ptr %5, i32 1
  store ptr %6, ptr %4, align 8, !tbaa !388
  ret ptr %3
}

; Function Attrs: mustprogress uwtable
define linkonce_odr void @_ZN5Yosys7hashlib11HasherDJB326hash32Ej(ptr noundef nonnull align 4 dereferenceable(4) %0, i32 noundef %1) #4 comdat align 2 {
  %3 = alloca ptr, align 8
  %4 = alloca i32, align 4
  store ptr %0, ptr %3, align 8, !tbaa !33
  store i32 %1, ptr %4, align 4, !tbaa !32
  %5 = load ptr, ptr %3, align 8
  %6 = load i32, ptr %4, align 4, !tbaa !32
  %7 = getelementptr inbounds nuw %"class.Yosys::hashlib::HasherDJB32", ptr %5, i32 0, i32 0
  %8 = load i32, ptr %7, align 4, !tbaa !206
  %9 = call noundef i32 @_ZN5Yosys7hashlib11HasherDJB328djb2_xorEjj(i32 noundef %6, i32 noundef %8)
  %10 = getelementptr inbounds nuw %"class.Yosys::hashlib::HasherDJB32", ptr %5, i32 0, i32 0
  store i32 %9, ptr %10, align 4, !tbaa !206
  %11 = load i32, ptr @_ZN5Yosys7hashlib11HasherDJB325fudgeE, align 4, !tbaa !32
  %12 = getelementptr inbounds nuw %"class.Yosys::hashlib::HasherDJB32", ptr %5, i32 0, i32 0
  %13 = load i32, ptr %12, align 4, !tbaa !206
  %14 = xor i32 %11, %13
  %15 = call noundef i32 @_ZN5Yosys7hashlib15mkhash_xorshiftEj(i32 noundef %14)
  %16 = getelementptr inbounds nuw %"class.Yosys::hashlib::HasherDJB32", ptr %5, i32 0, i32 0
  store i32 %15, ptr %16, align 4, !tbaa !206
  ret void
}

; Function Attrs: mustprogress nounwind uwtable
define linkonce_odr noundef nonnull align 1 dereferenceable(1) ptr @_ZNK9__gnu_cxx17__normal_iteratorIPKcNSt7__cxx1112basic_stringIcSt11char_traitsIcESaIcEEEEdeEv(ptr noundef nonnull align 8 dereferenceable(8) %0) #6 comdat align 2 {
  %2 = alloca ptr, align 8
  store ptr %0, ptr %2, align 8, !tbaa !386
  %3 = load ptr, ptr %2, align 8
  %4 = getelementptr inbounds nuw %"class.__gnu_cxx::__normal_iterator.241", ptr %3, i32 0, i32 0
  %5 = load ptr, ptr %4, align 8, !tbaa !388
  ret ptr %5
}

; Function Attrs: inlinehint mustprogress nounwind uwtable
define linkonce_odr noundef zeroext i1 @_ZN9__gnu_cxxneIPKcNSt7__cxx1112basic_stringIcSt11char_traitsIcESaIcEEEEEbRKNS_17__normal_iteratorIT_T0_EESE_(ptr noundef nonnull align 8 dereferenceable(8) %0, ptr noundef nonnull align 8 dereferenceable(8) %1) #5 comdat {
  %3 = alloca ptr, align 8
  %4 = alloca ptr, align 8
  store ptr %0, ptr %3, align 8, !tbaa !386
  store ptr %1, ptr %4, align 8, !tbaa !386
  %5 = load ptr, ptr %3, align 8, !tbaa !386
  %6 = call noundef nonnull align 8 dereferenceable(8) ptr @_ZNK9__gnu_cxx17__normal_iteratorIPKcNSt7__cxx1112basic_stringIcSt11char_traitsIcESaIcEEEE4baseEv(ptr noundef nonnull align 8 dereferenceable(8) %5) #3
  %7 = load ptr, ptr %6, align 8, !tbaa !67
  %8 = load ptr, ptr %4, align 8, !tbaa !386
  %9 = call noundef nonnull align 8 dereferenceable(8) ptr @_ZNK9__gnu_cxx17__normal_iteratorIPKcNSt7__cxx1112basic_stringIcSt11char_traitsIcESaIcEEEE4baseEv(ptr noundef nonnull align 8 dereferenceable(8) %8) #3
  %10 = load ptr, ptr %9, align 8, !tbaa !67
  %11 = icmp ne ptr %7, %10
  ret i1 %11
}

; Function Attrs: mustprogress nounwind uwtable
define available_externally ptr @_ZNKSt7__cxx1112basic_stringIcSt11char_traitsIcESaIcEE3endEv(ptr noundef nonnull align 8 dereferenceable(32) %0) #6 align 2 {
  %2 = alloca %"class.__gnu_cxx::__normal_iterator.241", align 8
  %3 = alloca ptr, align 8
  %4 = alloca ptr, align 8
  store ptr %0, ptr %3, align 8, !tbaa !41
  %5 = load ptr, ptr %3, align 8
  call void @llvm.lifetime.start.p0(i64 8, ptr %4) #3
  %6 = call noundef ptr @_ZNKSt7__cxx1112basic_stringIcSt11char_traitsIcESaIcEE7_M_dataEv(ptr noundef nonnull align 8 dereferenceable(32) %5)
  %7 = call noundef i64 @_ZNKSt7__cxx1112basic_stringIcSt11char_traitsIcESaIcEE4sizeEv(ptr noundef nonnull align 8 dereferenceable(32) %5) #3
  %8 = getelementptr inbounds nuw i8, ptr %6, i64 %7
  store ptr %8, ptr %4, align 8, !tbaa !67
  call void @_ZN9__gnu_cxx17__normal_iteratorIPKcNSt7__cxx1112basic_stringIcSt11char_traitsIcESaIcEEEEC2ERKS2_(ptr noundef nonnull align 8 dereferenceable(8) %2, ptr noundef nonnull align 8 dereferenceable(8) %4) #3
  call void @llvm.lifetime.end.p0(i64 8, ptr %4) #3
  %9 = getelementptr inbounds nuw %"class.__gnu_cxx::__normal_iterator.241", ptr %2, i32 0, i32 0
  %10 = load ptr, ptr %9, align 8
  ret ptr %10
}

; Function Attrs: mustprogress nounwind uwtable
define available_externally ptr @_ZNKSt7__cxx1112basic_stringIcSt11char_traitsIcESaIcEE5beginEv(ptr noundef nonnull align 8 dereferenceable(32) %0) #6 align 2 {
  %2 = alloca %"class.__gnu_cxx::__normal_iterator.241", align 8
  %3 = alloca ptr, align 8
  %4 = alloca ptr, align 8
  store ptr %0, ptr %3, align 8, !tbaa !41
  %5 = load ptr, ptr %3, align 8
  call void @llvm.lifetime.start.p0(i64 8, ptr %4) #3
  %6 = call noundef ptr @_ZNKSt7__cxx1112basic_stringIcSt11char_traitsIcESaIcEE7_M_dataEv(ptr noundef nonnull align 8 dereferenceable(32) %5)
  store ptr %6, ptr %4, align 8, !tbaa !67
  call void @_ZN9__gnu_cxx17__normal_iteratorIPKcNSt7__cxx1112basic_stringIcSt11char_traitsIcESaIcEEEEC2ERKS2_(ptr noundef nonnull align 8 dereferenceable(8) %2, ptr noundef nonnull align 8 dereferenceable(8) %4) #3
  call void @llvm.lifetime.end.p0(i64 8, ptr %4) #3
  %7 = getelementptr inbounds nuw %"class.__gnu_cxx::__normal_iterator.241", ptr %2, i32 0, i32 0
  %8 = load ptr, ptr %7, align 8
  ret ptr %8
}

; Function Attrs: inlinehint mustprogress uwtable
define linkonce_odr i32 @_ZN5Yosys7hashlib8hash_opsINSt7__cxx1112basic_stringIcSt11char_traitsIcESaIcEEEE9hash_intoERKS7_NS0_11HasherDJB32E(ptr noundef nonnull align 8 dereferenceable(32) %0, i32 %1) #9 comdat align 2 {
  %3 = alloca %"class.Yosys::hashlib::HasherDJB32", align 4
  %4 = alloca %"class.Yosys::hashlib::HasherDJB32", align 4
  %5 = alloca ptr, align 8
  %6 = alloca ptr, align 8
  %7 = alloca %"class.__gnu_cxx::__normal_iterator.241", align 8
  %8 = alloca %"class.__gnu_cxx::__normal_iterator.241", align 8
  %9 = alloca i8, align 1
  %10 = getelementptr inbounds nuw %"class.Yosys::hashlib::HasherDJB32", ptr %4, i32 0, i32 0
  store i32 %1, ptr %10, align 4
  store ptr %0, ptr %5, align 8, !tbaa !41
  call void @llvm.lifetime.start.p0(i64 8, ptr %6) #3
  %11 = load ptr, ptr %5, align 8, !tbaa !41
  store ptr %11, ptr %6, align 8, !tbaa !41
  call void @llvm.lifetime.start.p0(i64 8, ptr %7) #3
  %12 = load ptr, ptr %6, align 8, !tbaa !41
  %13 = call ptr @_ZNKSt7__cxx1112basic_stringIcSt11char_traitsIcESaIcEE5beginEv(ptr noundef nonnull align 8 dereferenceable(32) %12) #3
  %14 = getelementptr inbounds nuw %"class.__gnu_cxx::__normal_iterator.241", ptr %7, i32 0, i32 0
  store ptr %13, ptr %14, align 8
  call void @llvm.lifetime.start.p0(i64 8, ptr %8) #3
  %15 = load ptr, ptr %6, align 8, !tbaa !41
  %16 = call ptr @_ZNKSt7__cxx1112basic_stringIcSt11char_traitsIcESaIcEE3endEv(ptr noundef nonnull align 8 dereferenceable(32) %15) #3
  %17 = getelementptr inbounds nuw %"class.__gnu_cxx::__normal_iterator.241", ptr %8, i32 0, i32 0
  store ptr %16, ptr %17, align 8
  br label %18

18:                                               ; preds = %26, %2
  %19 = call noundef zeroext i1 @_ZN9__gnu_cxxneIPKcNSt7__cxx1112basic_stringIcSt11char_traitsIcESaIcEEEEEbRKNS_17__normal_iteratorIT_T0_EESE_(ptr noundef nonnull align 8 dereferenceable(8) %7, ptr noundef nonnull align 8 dereferenceable(8) %8) #3
  br i1 %19, label %21, label %20

20:                                               ; preds = %18
  call void @llvm.lifetime.end.p0(i64 8, ptr %8) #3
  call void @llvm.lifetime.end.p0(i64 8, ptr %7) #3
  call void @llvm.lifetime.end.p0(i64 8, ptr %6) #3
  br label %28

21:                                               ; preds = %18
  call void @llvm.lifetime.start.p0(i64 1, ptr %9) #3
  %22 = call noundef nonnull align 1 dereferenceable(1) ptr @_ZNK9__gnu_cxx17__normal_iteratorIPKcNSt7__cxx1112basic_stringIcSt11char_traitsIcESaIcEEEEdeEv(ptr noundef nonnull align 8 dereferenceable(8) %7) #3
  %23 = load i8, ptr %22, align 1, !tbaa !69
  store i8 %23, ptr %9, align 1, !tbaa !69
  %24 = load i8, ptr %9, align 1, !tbaa !69
  %25 = sext i8 %24 to i32
  call void @_ZN5Yosys7hashlib11HasherDJB326hash32Ej(ptr noundef nonnull align 4 dereferenceable(4) %4, i32 noundef %25)
  call void @llvm.lifetime.end.p0(i64 1, ptr %9) #3
  br label %26

26:                                               ; preds = %21
  %27 = call noundef nonnull align 8 dereferenceable(8) ptr @_ZN9__gnu_cxx17__normal_iteratorIPKcNSt7__cxx1112basic_stringIcSt11char_traitsIcESaIcEEEEppEv(ptr noundef nonnull align 8 dereferenceable(8) %7) #3
  br label %18

28:                                               ; preds = %20
  call void @llvm.memcpy.p0.p0.i64(ptr align 4 %3, ptr align 4 %4, i64 4, i1 false), !tbaa.struct !31
  %29 = getelementptr inbounds nuw %"class.Yosys::hashlib::HasherDJB32", ptr %3, i32 0, i32 0
  %30 = load i32, ptr %29, align 4
  ret i32 %30
}

; Function Attrs: mustprogress uwtable
define linkonce_odr void @_ZN5Yosys7hashlib11HasherDJB323eatINSt7__cxx1112basic_stringIcSt11char_traitsIcESaIcEEEEEvRKT_(ptr noundef nonnull align 4 dereferenceable(4) %0, ptr noundef nonnull align 8 dereferenceable(32) %1) #4 comdat align 2 {
  %3 = alloca ptr, align 8
  %4 = alloca ptr, align 8
  %5 = alloca %"class.Yosys::hashlib::HasherDJB32", align 4
  %6 = alloca %"class.Yosys::hashlib::HasherDJB32", align 4
  store ptr %0, ptr %3, align 8, !tbaa !33
  store ptr %1, ptr %4, align 8, !tbaa !41
  %7 = load ptr, ptr %3, align 8
  call void @llvm.lifetime.start.p0(i64 4, ptr %5) #3
  %8 = load ptr, ptr %4, align 8, !tbaa !41
  call void @llvm.memcpy.p0.p0.i64(ptr align 4 %6, ptr align 4 %7, i64 4, i1 false), !tbaa.struct !31
  %9 = getelementptr inbounds nuw %"class.Yosys::hashlib::HasherDJB32", ptr %6, i32 0, i32 0
  %10 = load i32, ptr %9, align 4
  %11 = call i32 @_ZN5Yosys7hashlib8hash_opsINSt7__cxx1112basic_stringIcSt11char_traitsIcESaIcEEEE9hash_intoERKS7_NS0_11HasherDJB32E(ptr noundef nonnull align 8 dereferenceable(32) %8, i32 %10)
  %12 = getelementptr inbounds nuw %"class.Yosys::hashlib::HasherDJB32", ptr %5, i32 0, i32 0
  store i32 %11, ptr %12, align 4
  call void @llvm.memcpy.p0.p0.i64(ptr align 4 %7, ptr align 4 %5, i64 4, i1 false), !tbaa.struct !31
  call void @llvm.lifetime.end.p0(i64 4, ptr %5) #3
  ret void
}

; Function Attrs: mustprogress uwtable
define i32 @_ZNK5Yosys3Aig9hash_intoENS_7hashlib11HasherDJB32E(ptr noundef nonnull align 8 dereferenceable(56) %0, i32 %1) #4 align 2 {
  %3 = alloca %"class.Yosys::hashlib::HasherDJB32", align 4
  %4 = alloca %"class.Yosys::hashlib::HasherDJB32", align 4
  %5 = alloca ptr, align 8
  %6 = getelementptr inbounds nuw %"class.Yosys::hashlib::HasherDJB32", ptr %4, i32 0, i32 0
  store i32 %1, ptr %6, align 4
  store ptr %0, ptr %5, align 8, !tbaa !39
  %7 = load ptr, ptr %5, align 8
  %8 = getelementptr inbounds nuw %"struct.Yosys::Aig", ptr %7, i32 0, i32 0
  call void @_ZN5Yosys7hashlib11HasherDJB323eatINSt7__cxx1112basic_stringIcSt11char_traitsIcESaIcEEEEEvRKT_(ptr noundef nonnull align 4 dereferenceable(4) %4, ptr noundef nonnull align 8 dereferenceable(32) %8)
  call void @llvm.memcpy.p0.p0.i64(ptr align 4 %3, ptr align 4 %4, i64 4, i1 false), !tbaa.struct !31
  %9 = getelementptr inbounds nuw %"class.Yosys::hashlib::HasherDJB32", ptr %3, i32 0, i32 0
  %10 = load i32, ptr %9, align 4
  ret i32 %10
}