; Function Attrs: mustprogress nofree norecurse nosync nounwind willreturn memory(read, inaccessiblemem: none) uwtable
define i32 @_ZNK5Yosys3Aig9hash_intoENS_7hashlib11HasherDJB32E(ptr noundef nonnull readonly align 8 captures(none) dereferenceable(56) %0, i32 %1) local_unnamed_addr #8 align 2 {
  %3 = load ptr, ptr %0, align 8, !tbaa !35
  %4 = getelementptr inbounds nuw i8, ptr %0, i64 8
  %5 = load i64, ptr %4, align 8, !tbaa !30
  %6 = getelementptr inbounds nuw i8, ptr %3, i64 %5
  %.not8.i.i = icmp samesign eq i64 %5, 0
  br i1 %.not8.i.i, label %_ZN5Yosys7hashlib11HasherDJB323eatINSt7__cxx1112basic_stringIcSt11char_traitsIcESaIcEEEEEvRKT_.exit, label %.lr.ph.i.i

.lr.ph.i.i:                                       ; preds = %2
  %7 = load i32, ptr @_ZN5Yosys7hashlib11HasherDJB325fudgeE, align 4, !tbaa !25
  br label %8

8:                                                ; preds = %8, %.lr.ph.i.i
  %.sroa.06.010.i.i = phi i32 [ %1, %.lr.ph.i.i ], [ %19, %8 ]
  %.sroa.03.09.i.i = phi ptr [ %3, %.lr.ph.i.i ], [ %20, %8 ]
  %9 = load i8, ptr %.sroa.03.09.i.i, align 1, !tbaa !36
  %10 = sext i8 %9 to i32
  %11 = mul nsw i32 %10, 33
  %12 = xor i32 %.sroa.06.010.i.i, %7
  %13 = xor i32 %12, %11
  %14 = shl i32 %13, 13
  %15 = xor i32 %14, %13
  %16 = lshr i32 %15, 17
  %17 = xor i32 %16, %15
  %18 = shl i32 %17, 5
  %19 = xor i32 %18, %17
  %20 = getelementptr inbounds nuw i8, ptr %.sroa.03.09.i.i, i64 1
  %.not.i.i = icmp eq ptr %20, %6
  br i1 %.not.i.i, label %_ZN5Yosys7hashlib11HasherDJB323eatINSt7__cxx1112basic_stringIcSt11char_traitsIcESaIcEEEEEvRKT_.exit, label %8

_ZN5Yosys7hashlib11HasherDJB323eatINSt7__cxx1112basic_stringIcSt11char_traitsIcESaIcEEEEEvRKT_.exit: ; preds = %8, %2
  %.sroa.06.0.lcssa.i.i = phi i32 [ %1, %2 ], [ %19, %8 ]
  ret i32 %.sroa.06.0.lcssa.i.i
}